target datalayout = "e-m:e-p270:32:32-p271:32:32-p272:64:64-i64:64-i128:128-f80:128-n8:16:32:64-S128"
target triple = "x86_64-pc-linux-gnu"

; Function Attrs: nounwind uwtable
define hidden i32 @mbedtls_ecp_tls_write_point(ptr noundef %0, ptr noundef %1, i32 noundef %2, ptr noundef %3, ptr noundef %4, i64 noundef %5) #0 {
  %7 = alloca i32, align 4
  %8 = alloca ptr, align 8
  %9 = alloca ptr, align 8
  %10 = alloca i32, align 4
  %11 = alloca ptr, align 8
  %12 = alloca ptr, align 8
  %13 = alloca i64, align 8
  %14 = alloca i32, align 4
  %15 = alloca i32, align 4
  store ptr %0, ptr %8, align 8, !tbaa !25
  store ptr %1, ptr %9, align 8, !tbaa !34
  store i32 %2, ptr %10, align 4, !tbaa !3
  store ptr %3, ptr %11, align 8, !tbaa !48
  store ptr %4, ptr %12, align 8, !tbaa !22
  store i64 %5, ptr %13, align 8, !tbaa !7
  call void @llvm.lifetime.start.p0(i64 4, ptr %14) #11
  store i32 -110, ptr %14, align 4, !tbaa !3
  %16 = load i32, ptr %10, align 4, !tbaa !3
  %17 = icmp ne i32 %16, 0
  br i1 %17, label %18, label %22

18:                                               ; preds = %6
  %19 = load i32, ptr %10, align 4, !tbaa !3
  %20 = icmp ne i32 %19, 1
  br i1 %20, label %21, label %22

21:                                               ; preds = %18
  store i32 -20352, ptr %7, align 4
  store i32 1, ptr %15, align 4
  br label %48

22:                                               ; preds = %18, %6
  %23 = load i64, ptr %13, align 8, !tbaa !7
  %24 = icmp ult i64 %23, 1
  br i1 %24, label %25, label %26

25:                                               ; preds = %22
  store i32 -20352, ptr %7, align 4
  store i32 1, ptr %15, align 4
  br label %48

26:                                               ; preds = %22
  %27 = load ptr, ptr %8, align 8, !tbaa !25
  %28 = load ptr, ptr %9, align 8, !tbaa !34
  %29 = load i32, ptr %10, align 4, !tbaa !3
  %30 = load ptr, ptr %11, align 8, !tbaa !48
  %31 = load ptr, ptr %12, align 8, !tbaa !22
  %32 = getelementptr inbounds i8, ptr %31, i64 1
  %33 = load i64, ptr %13, align 8, !tbaa !7
  %34 = sub i64 %33, 1
  %35 = call i32 @mbedtls_ecp_point_write_binary(ptr noundef %27, ptr noundef %28, i32 noundef %29, ptr noundef %30, ptr noundef %32, i64 noundef %34)
  store i32 %35, ptr %14, align 4, !tbaa !3
  %36 = icmp ne i32 %35, 0
  br i1 %36, label %37, label %39

37:                                               ; preds = %26
  %38 = load i32, ptr %14, align 4, !tbaa !3
  store i32 %38, ptr %7, align 4
  store i32 1, ptr %15, align 4
  br label %48

39:                                               ; preds = %26
  %40 = load ptr, ptr %11, align 8, !tbaa !48
  %41 = load i64, ptr %40, align 8, !tbaa !7
  %42 = trunc i64 %41 to i8
  %43 = load ptr, ptr %12, align 8, !tbaa !22
  %44 = getelementptr inbounds i8, ptr %43, i64 0
  store i8 %42, ptr %44, align 1, !tbaa !49
  %45 = load ptr, ptr %11, align 8, !tbaa !48
  %46 = load i64, ptr %45, align 8, !tbaa !7
  %47 = add i64 %46, 1
  store i64 %47, ptr %45, align 8, !tbaa !7
  store i32 0, ptr %7, align 4
  store i32 1, ptr %15, align 4
  br label %48

48:                                               ; preds = %39, %37, %25, %21
  call void @llvm.lifetime.end.p0(i64 4, ptr %14) #11
  %49 = load i32, ptr %7, align 4
  ret i32 %49
}