; Function Attrs: nounwind uwtable
define hidden i32 @mbedtls_ecp_tls_write_point(ptr noundef %0, ptr noundef %1, i32 noundef %2, ptr noundef captures(none) %3, ptr noundef %4, i64 noundef %5) local_unnamed_addr #7 {
  %or.cond = icmp ugt i32 %2, 1
  %7 = icmp eq i64 %5, 0
  %or.cond16 = or i1 %or.cond, %7
  br i1 %or.cond16, label %17, label %8

8:                                                ; preds = %6
  %9 = getelementptr inbounds nuw i8, ptr %4, i64 1
  %10 = add i64 %5, -1
  %11 = tail call i32 @mbedtls_ecp_point_write_binary(ptr noundef %0, ptr noundef %1, i32 noundef %2, ptr noundef %3, ptr noundef nonnull %9, i64 noundef %10)
  %.not = icmp eq i32 %11, 0
  br i1 %.not, label %12, label %17

12:                                               ; preds = %8
  %13 = load i64, ptr %3, align 8, !tbaa !33
  %14 = trunc i64 %13 to i8
  store i8 %14, ptr %4, align 1, !tbaa !34
  %15 = load i64, ptr %3, align 8, !tbaa !33
  %16 = add i64 %15, 1
  store i64 %16, ptr %3, align 8, !tbaa !33
  br label %17

17:                                               ; preds = %8, %6, %12
  %.0 = phi i32 [ 0, %12 ], [ -20352, %6 ], [ %11, %8 ]
  ret i32 %.0
}